target datalayout = "e-m:e-p270:32:32-p271:32:32-p272:64:64-i64:64-i128:128-f80:128-n8:16:32:64-S128"
target triple = "x86_64-pc-linux-gnu"

%"struct.duckdb_libpgquery::yyguts_t" = type { ptr, ptr, ptr, i64, i64, ptr, i8, i64, i64, ptr, i32, i32, i32, i32, i32, ptr, i32, ptr, i32, i32, ptr, i32, i32, ptr, ptr }

; Function Attrs: mustprogress nounwind uwtable
define internal noundef i32 @_ZN17duckdb_libpgqueryL15yy_init_globalsEPv(ptr noundef %0) #2 {
  %2 = alloca ptr, align 8
  %3 = alloca ptr, align 8
  store ptr %0, ptr %2, align 8, !tbaa !10
  call void @llvm.lifetime.start.p0(i64 8, ptr %3) #11
  %4 = load ptr, ptr %2, align 8, !tbaa !10
  store ptr %4, ptr %3, align 8, !tbaa !11
  %5 = load ptr, ptr %3, align 8, !tbaa !11
  %6 = getelementptr inbounds nuw %"struct.duckdb_libpgquery::yyguts_t", ptr %5, i32 0, i32 5
  store ptr null, ptr %6, align 8, !tbaa !24
  %7 = load ptr, ptr %3, align 8, !tbaa !11
  %8 = getelementptr inbounds nuw %"struct.duckdb_libpgquery::yyguts_t", ptr %7, i32 0, i32 3
  store i64 0, ptr %8, align 8, !tbaa !25
  %9 = load ptr, ptr %3, align 8, !tbaa !11
  %10 = getelementptr inbounds nuw %"struct.duckdb_libpgquery::yyguts_t", ptr %9, i32 0, i32 4
  store i64 0, ptr %10, align 8, !tbaa !75
  %11 = load ptr, ptr %3, align 8, !tbaa !11
  %12 = getelementptr inbounds nuw %"struct.duckdb_libpgquery::yyguts_t", ptr %11, i32 0, i32 9
  store ptr null, ptr %12, align 8, !tbaa !29
  %13 = load ptr, ptr %3, align 8, !tbaa !11
  %14 = getelementptr inbounds nuw %"struct.duckdb_libpgquery::yyguts_t", ptr %13, i32 0, i32 10
  store i32 0, ptr %14, align 8, !tbaa !22
  %15 = load ptr, ptr %3, align 8, !tbaa !11
  %16 = getelementptr inbounds nuw %"struct.duckdb_libpgquery::yyguts_t", ptr %15, i32 0, i32 11
  store i32 0, ptr %16, align 4, !tbaa !23
  %17 = load ptr, ptr %3, align 8, !tbaa !11
  %18 = getelementptr inbounds nuw %"struct.duckdb_libpgquery::yyguts_t", ptr %17, i32 0, i32 13
  store i32 0, ptr %18, align 4, !tbaa !102
  %19 = load ptr, ptr %3, align 8, !tbaa !11
  %20 = getelementptr inbounds nuw %"struct.duckdb_libpgquery::yyguts_t", ptr %19, i32 0, i32 14
  store i32 0, ptr %20, align 8, !tbaa !103
  %21 = load ptr, ptr %3, align 8, !tbaa !11
  %22 = getelementptr inbounds nuw %"struct.duckdb_libpgquery::yyguts_t", ptr %21, i32 0, i32 15
  store ptr null, ptr %22, align 8, !tbaa !104
  %23 = load ptr, ptr %3, align 8, !tbaa !11
  %24 = getelementptr inbounds nuw %"struct.duckdb_libpgquery::yyguts_t", ptr %23, i32 0, i32 1
  store ptr null, ptr %24, align 8, !tbaa !28
  %25 = load ptr, ptr %3, align 8, !tbaa !11
  %26 = getelementptr inbounds nuw %"struct.duckdb_libpgquery::yyguts_t", ptr %25, i32 0, i32 2
  store ptr null, ptr %26, align 8, !tbaa !99
  call void @llvm.lifetime.end.p0(i64 8, ptr %3) #11
  ret i32 0
}

; Function Attrs: mustprogress uwtable
define hidden noundef ptr @_ZN17duckdb_libpgquery12core_yyallocEmPv(i64 noundef %0, ptr noundef %1) #0 {
  %3 = alloca i64, align 8
  %4 = alloca ptr, align 8
  store i64 %0, ptr %3, align 8, !tbaa !74
  store ptr %1, ptr %4, align 8, !tbaa !10
  %5 = load i64, ptr %3, align 8, !tbaa !74
  %6 = call noundef ptr @_ZN17duckdb_libpgquery6pallocEm(i64 noundef %5)
  ret ptr %6
}

; Function Attrs: mustprogress nounwind uwtable
define hidden void @_ZN17duckdb_libpgquery16core_yyset_extraEPNS_18core_yy_extra_typeEPv(ptr noundef %0, ptr noundef %1) #2 {
  %3 = alloca ptr, align 8
  %4 = alloca ptr, align 8
  %5 = alloca ptr, align 8
  store ptr %0, ptr %3, align 8, !tbaa !100
  store ptr %1, ptr %4, align 8, !tbaa !10
  call void @llvm.lifetime.start.p0(i64 8, ptr %5) #11
  %6 = load ptr, ptr %4, align 8, !tbaa !10
  store ptr %6, ptr %5, align 8, !tbaa !11
  %7 = load ptr, ptr %3, align 8, !tbaa !100
  %8 = load ptr, ptr %5, align 8, !tbaa !11
  %9 = getelementptr inbounds nuw %"struct.duckdb_libpgquery::yyguts_t", ptr %8, i32 0, i32 0
  store ptr %7, ptr %9, align 8, !tbaa !43
  call void @llvm.lifetime.end.p0(i64 8, ptr %5) #11
  ret void
}

; Function Attrs: mustprogress uwtable
define hidden noundef i32 @_ZN17duckdb_libpgquery21core_yylex_init_extraEPNS_18core_yy_extra_typeEPPv(ptr noundef %0, ptr noundef %1) #0 {
  %3 = alloca i32, align 4
  %4 = alloca ptr, align 8
  %5 = alloca ptr, align 8
  %6 = alloca %"struct.duckdb_libpgquery::yyguts_t", align 8
  %7 = alloca i32, align 4
  store ptr %0, ptr %4, align 8, !tbaa !100
  store ptr %1, ptr %5, align 8, !tbaa !10
  call void @llvm.lifetime.start.p0(i64 168, ptr %6) #11
  %8 = load ptr, ptr %4, align 8, !tbaa !100
  call void @_ZN17duckdb_libpgquery16core_yyset_extraEPNS_18core_yy_extra_typeEPv(ptr noundef %8, ptr noundef %6)
  %9 = load ptr, ptr %5, align 8, !tbaa !10
  %10 = icmp eq ptr %9, null
  br i1 %10, label %11, label %13

11:                                               ; preds = %2
  %12 = call ptr @__errno_location() #14
  store i32 22, ptr %12, align 4, !tbaa !33
  store i32 1, ptr %3, align 4
  store i32 1, ptr %7, align 4
  br label %30

13:                                               ; preds = %2
  %14 = call noundef ptr @_ZN17duckdb_libpgquery12core_yyallocEmPv(i64 noundef 168, ptr noundef %6)
  %15 = load ptr, ptr %5, align 8, !tbaa !10
  store ptr %14, ptr %15, align 8, !tbaa !10
  %16 = load ptr, ptr %5, align 8, !tbaa !10
  %17 = load ptr, ptr %16, align 8, !tbaa !10
  %18 = icmp eq ptr %17, null
  br i1 %18, label %19, label %21

19:                                               ; preds = %13
  %20 = call ptr @__errno_location() #14
  store i32 12, ptr %20, align 4, !tbaa !33
  store i32 1, ptr %3, align 4
  store i32 1, ptr %7, align 4
  br label %30

21:                                               ; preds = %13
  %22 = load ptr, ptr %5, align 8, !tbaa !10
  %23 = load ptr, ptr %22, align 8, !tbaa !10
  call void @llvm.memset.p0.i64(ptr align 1 %23, i8 0, i64 168, i1 false)
  %24 = load ptr, ptr %4, align 8, !tbaa !100
  %25 = load ptr, ptr %5, align 8, !tbaa !10
  %26 = load ptr, ptr %25, align 8, !tbaa !10
  call void @_ZN17duckdb_libpgquery16core_yyset_extraEPNS_18core_yy_extra_typeEPv(ptr noundef %24, ptr noundef %26)
  %27 = load ptr, ptr %5, align 8, !tbaa !10
  %28 = load ptr, ptr %27, align 8, !tbaa !10
  %29 = call noundef i32 @_ZN17duckdb_libpgqueryL15yy_init_globalsEPv(ptr noundef %28)
  store i32 %29, ptr %3, align 4
  store i32 1, ptr %7, align 4
  br label %30

30:                                               ; preds = %21, %19, %11
  call void @llvm.lifetime.end.p0(i64 168, ptr %6) #11
  %31 = load i32, ptr %3, align 4
  ret i32 %31
}